; Function Attrs: nounwind uwtable
define ptr @l_Lean_PersistentArray_forIn___at_Lean_LocalContext_instForInLocalDecl___spec__1___rarg(ptr noundef %0, ptr noundef %1, ptr noundef %2, ptr noundef %3) #2 {
  %5 = getelementptr inbounds nuw i8, ptr %0, i64 16
  %6 = load ptr, ptr %5, align 8, !tbaa !9
  %7 = ptrtoint ptr %6 to i64
  %8 = and i64 %7, 1
  %.not = icmp eq i64 %8, 0
  br i1 %.not, label %9, label %lean_inc.exit29

9:                                                ; preds = %4
  %.val.i = load i32, ptr %6, align 4, !tbaa !4
  %10 = icmp sgt i32 %.val.i, 0
  br i1 %10, label %11, label %13, !prof !11

11:                                               ; preds = %9
  %12 = add nuw i32 %.val.i, 1
  store i32 %12, ptr %6, align 4, !tbaa !4
  br label %lean_inc.exit29

13:                                               ; preds = %9
  %.not.i = icmp eq i32 %.val.i, 0
  br i1 %.not.i, label %lean_inc.exit29, label %14

14:                                               ; preds = %13
  tail call void @lean_inc_ref_cold(ptr noundef nonnull %6) #8
  br label %lean_inc.exit29

lean_inc.exit29:                                  ; preds = %14, %13, %11, %4
  %15 = getelementptr inbounds nuw i8, ptr %2, i64 8
  %16 = load ptr, ptr %15, align 8, !tbaa !9
  %17 = ptrtoint ptr %16 to i64
  %18 = and i64 %17, 1
  %.not45 = icmp eq i64 %18, 0
  br i1 %.not45, label %19, label %lean_inc.exit28

19:                                               ; preds = %lean_inc.exit29
  %.val.i30 = load i32, ptr %16, align 4, !tbaa !4
  %20 = icmp sgt i32 %.val.i30, 0
  br i1 %20, label %21, label %23, !prof !11

21:                                               ; preds = %19
  %22 = add nuw i32 %.val.i30, 1
  store i32 %22, ptr %16, align 4, !tbaa !4
  br label %lean_inc.exit28

23:                                               ; preds = %19
  %.not.i31 = icmp eq i32 %.val.i30, 0
  br i1 %.not.i31, label %lean_inc.exit28, label %24

24:                                               ; preds = %23
  tail call void @lean_inc_ref_cold(ptr noundef nonnull %16) #8
  br label %lean_inc.exit28

lean_inc.exit28:                                  ; preds = %24, %23, %21, %lean_inc.exit29
  %25 = ptrtoint ptr %3 to i64
  %26 = and i64 %25, 1
  %.not46 = icmp eq i64 %26, 0
  br i1 %.not46, label %27, label %lean_inc.exit27

27:                                               ; preds = %lean_inc.exit28
  %.val.i33 = load i32, ptr %3, align 4, !tbaa !4
  %28 = icmp sgt i32 %.val.i33, 0
  br i1 %28, label %29, label %31, !prof !11

29:                                               ; preds = %27
  %30 = add nuw i32 %.val.i33, 1
  store i32 %30, ptr %3, align 4, !tbaa !4
  br label %lean_inc.exit27

31:                                               ; preds = %27
  %.not.i34 = icmp eq i32 %.val.i33, 0
  br i1 %.not.i34, label %lean_inc.exit27, label %32

32:                                               ; preds = %31
  tail call void @lean_inc_ref_cold(ptr noundef nonnull %3) #8
  br label %lean_inc.exit27

lean_inc.exit27:                                  ; preds = %32, %31, %29, %lean_inc.exit28
  %33 = ptrtoint ptr %1 to i64
  %34 = and i64 %33, 1
  %.not47 = icmp eq i64 %34, 0
  br i1 %.not47, label %35, label %lean_inc.exit26

35:                                               ; preds = %lean_inc.exit27
  %.val.i36 = load i32, ptr %1, align 4, !tbaa !4
  %36 = icmp sgt i32 %.val.i36, 0
  br i1 %36, label %37, label %39, !prof !11

37:                                               ; preds = %35
  %38 = add nuw i32 %.val.i36, 1
  store i32 %38, ptr %1, align 4, !tbaa !4
  br label %lean_inc.exit26

39:                                               ; preds = %35
  %.not.i37 = icmp eq i32 %.val.i36, 0
  br i1 %.not.i37, label %lean_inc.exit26, label %40

40:                                               ; preds = %39
  tail call void @lean_inc_ref_cold(ptr noundef nonnull %1) #8
  br label %lean_inc.exit26

lean_inc.exit26:                                  ; preds = %40, %39, %37, %lean_inc.exit27
  %41 = ptrtoint ptr %0 to i64
  %42 = and i64 %41, 1
  %.not48 = icmp eq i64 %42, 0
  br i1 %.not48, label %43, label %lean_inc.exit25

43:                                               ; preds = %lean_inc.exit26
  %.val.i39 = load i32, ptr %0, align 4, !tbaa !4
  %44 = icmp sgt i32 %.val.i39, 0
  br i1 %44, label %45, label %47, !prof !11

45:                                               ; preds = %43
  %46 = add nuw i32 %.val.i39, 1
  store i32 %46, ptr %0, align 4, !tbaa !4
  br label %lean_inc.exit25

47:                                               ; preds = %43
  %.not.i40 = icmp eq i32 %.val.i39, 0
  br i1 %.not.i40, label %lean_inc.exit25, label %48

48:                                               ; preds = %47
  tail call void @lean_inc_ref_cold(ptr noundef nonnull %0) #8
  br label %lean_inc.exit25

lean_inc.exit25:                                  ; preds = %48, %47, %45, %lean_inc.exit26
  %49 = tail call ptr @l_Lean_PersistentArray_forInAux___at_Lean_LocalContext_instForInLocalDecl___spec__2___rarg(ptr noundef nonnull %0, ptr noundef %1, ptr noundef %3, ptr noundef %16, ptr noundef %3)
  br i1 %.not, label %50, label %lean_inc.exit

50:                                               ; preds = %lean_inc.exit25
  %.val.i42 = load i32, ptr %6, align 4, !tbaa !4
  %51 = icmp sgt i32 %.val.i42, 0
  br i1 %51, label %52, label %54, !prof !11

52:                                               ; preds = %50
  %53 = add nuw i32 %.val.i42, 1
  store i32 %53, ptr %6, align 4, !tbaa !4
  br label %lean_inc.exit

54:                                               ; preds = %50
  %.not.i43 = icmp eq i32 %.val.i42, 0
  br i1 %.not.i43, label %lean_inc.exit, label %55

55:                                               ; preds = %54
  tail call void @lean_inc_ref_cold(ptr noundef nonnull %6) #8
  br label %lean_inc.exit

lean_inc.exit:                                    ; preds = %55, %54, %52, %lean_inc.exit25
  tail call void @lean_inc_heartbeat() #8
  %56 = tail call noalias ptr @mi_malloc_small(i64 noundef 56) #8
  %57 = icmp eq ptr %56, null
  br i1 %57, label %58, label %lean_alloc_closure.exit

58:                                               ; preds = %lean_inc.exit
  tail call void @lean_internal_panic_out_of_memory() #9
  unreachable

lean_alloc_closure.exit:                          ; preds = %lean_inc.exit
  %59 = getelementptr inbounds nuw i8, ptr %56, i64 4
  store i32 1, ptr %56, align 4, !tbaa !4
  store i32 -184549320, ptr %59, align 4
  %60 = getelementptr inbounds nuw i8, ptr %56, i64 8
  store ptr @l_Lean_PersistentArray_forIn___at_Lean_LocalContext_instForInLocalDecl___spec__1___rarg___lambda__3, ptr %60, align 8, !tbaa !9
  %61 = getelementptr inbounds nuw i8, ptr %56, i64 16
  store i16 5, ptr %61, align 8, !tbaa !14
  %62 = getelementptr inbounds nuw i8, ptr %56, i64 18
  store i16 4, ptr %62, align 2, !tbaa !14
  %63 = getelementptr inbounds nuw i8, ptr %56, i64 24
  store ptr %0, ptr %63, align 8, !tbaa !9
  %64 = getelementptr inbounds nuw i8, ptr %56, i64 32
  store ptr %2, ptr %64, align 8, !tbaa !9
  %65 = getelementptr inbounds nuw i8, ptr %56, i64 40
  store ptr %1, ptr %65, align 8, !tbaa !9
  %66 = getelementptr inbounds nuw i8, ptr %56, i64 48
  store ptr %6, ptr %66, align 8, !tbaa !9
  %67 = tail call ptr @lean_apply_4(ptr noundef %6, ptr noundef nonnull inttoptr (i64 1 to ptr), ptr noundef nonnull inttoptr (i64 1 to ptr), ptr noundef %49, ptr noundef nonnull %56) #8
  ret ptr %67
}